target datalayout = "e-m:e-p270:32:32-p271:32:32-p272:64:64-i64:64-i128:128-f80:128-n8:16:32:64-S128"
target triple = "x86_64-pc-linux-gnu"

%struct.cloudManager = type { i32, i32, [4 x i32], i32, [4 x i32], i32, i32, i32, i32, i32, i32, i32, i32, i32, i32, ptr, ptr, ptr, ptr, ptr, ptr, ptr, [20 x ptr] }

; Function Attrs: inlinehint nounwind uwtable
define internal i32 @Kit_TruthIsOpposite(ptr noundef %0, ptr noundef %1, i32 noundef %2) #3 {
  %4 = alloca i32, align 4
  %5 = alloca ptr, align 8
  %6 = alloca ptr, align 8
  %7 = alloca i32, align 4
  %8 = alloca i32, align 4
  %9 = alloca i32, align 4
  store ptr %0, ptr %5, align 8, !tbaa !17
  store ptr %1, ptr %6, align 8, !tbaa !17
  store i32 %2, ptr %7, align 4, !tbaa !8
  call void @llvm.lifetime.start.p0(i64 4, ptr %8) #8
  %10 = load i32, ptr %7, align 4, !tbaa !8
  %11 = call i32 @Kit_TruthWordNum(i32 noundef %10)
  %12 = sub nsw i32 %11, 1
  store i32 %12, ptr %8, align 4, !tbaa !8
  br label %13

13:                                               ; preds = %31, %3
  %14 = load i32, ptr %8, align 4, !tbaa !8
  %15 = icmp sge i32 %14, 0
  br i1 %15, label %16, label %34

16:                                               ; preds = %13
  %17 = load ptr, ptr %5, align 8, !tbaa !17
  %18 = load i32, ptr %8, align 4, !tbaa !8
  %19 = sext i32 %18 to i64
  %20 = getelementptr inbounds i32, ptr %17, i64 %19
  %21 = load i32, ptr %20, align 4, !tbaa !8
  %22 = load ptr, ptr %6, align 8, !tbaa !17
  %23 = load i32, ptr %8, align 4, !tbaa !8
  %24 = sext i32 %23 to i64
  %25 = getelementptr inbounds i32, ptr %22, i64 %24
  %26 = load i32, ptr %25, align 4, !tbaa !8
  %27 = xor i32 %26, -1
  %28 = icmp ne i32 %21, %27
  br i1 %28, label %29, label %30

29:                                               ; preds = %16
  store i32 0, ptr %4, align 4
  store i32 1, ptr %9, align 4
  br label %35

30:                                               ; preds = %16
  br label %31

31:                                               ; preds = %30
  %32 = load i32, ptr %8, align 4, !tbaa !8
  %33 = add nsw i32 %32, -1
  store i32 %33, ptr %8, align 4, !tbaa !8
  br label %13, !llvm.loop !23

34:                                               ; preds = %13
  store i32 1, ptr %4, align 4
  store i32 1, ptr %9, align 4
  br label %35

35:                                               ; preds = %34, %29
  call void @llvm.lifetime.end.p0(i64 4, ptr %8) #8
  %36 = load i32, ptr %4, align 4
  ret i32 %36
}

; Function Attrs: inlinehint nounwind uwtable
define internal i32 @Kit_TruthIsEqual(ptr noundef %0, ptr noundef %1, i32 noundef %2) #3 {
  %4 = alloca i32, align 4
  %5 = alloca ptr, align 8
  %6 = alloca ptr, align 8
  %7 = alloca i32, align 4
  %8 = alloca i32, align 4
  %9 = alloca i32, align 4
  store ptr %0, ptr %5, align 8, !tbaa !17
  store ptr %1, ptr %6, align 8, !tbaa !17
  store i32 %2, ptr %7, align 4, !tbaa !8
  call void @llvm.lifetime.start.p0(i64 4, ptr %8) #8
  %10 = load i32, ptr %7, align 4, !tbaa !8
  %11 = call i32 @Kit_TruthWordNum(i32 noundef %10)
  %12 = sub nsw i32 %11, 1
  store i32 %12, ptr %8, align 4, !tbaa !8
  br label %13

13:                                               ; preds = %30, %3
  %14 = load i32, ptr %8, align 4, !tbaa !8
  %15 = icmp sge i32 %14, 0
  br i1 %15, label %16, label %33

16:                                               ; preds = %13
  %17 = load ptr, ptr %5, align 8, !tbaa !17
  %18 = load i32, ptr %8, align 4, !tbaa !8
  %19 = sext i32 %18 to i64
  %20 = getelementptr inbounds i32, ptr %17, i64 %19
  %21 = load i32, ptr %20, align 4, !tbaa !8
  %22 = load ptr, ptr %6, align 8, !tbaa !17
  %23 = load i32, ptr %8, align 4, !tbaa !8
  %24 = sext i32 %23 to i64
  %25 = getelementptr inbounds i32, ptr %22, i64 %24
  %26 = load i32, ptr %25, align 4, !tbaa !8
  %27 = icmp ne i32 %21, %26
  br i1 %27, label %28, label %29

28:                                               ; preds = %16
  store i32 0, ptr %4, align 4
  store i32 1, ptr %9, align 4
  br label %34

29:                                               ; preds = %16
  br label %30

30:                                               ; preds = %29
  %31 = load i32, ptr %8, align 4, !tbaa !8
  %32 = add nsw i32 %31, -1
  store i32 %32, ptr %8, align 4, !tbaa !8
  br label %13, !llvm.loop !22

33:                                               ; preds = %13
  store i32 1, ptr %4, align 4
  store i32 1, ptr %9, align 4
  br label %34

34:                                               ; preds = %33, %28
  call void @llvm.lifetime.end.p0(i64 4, ptr %8) #8
  %35 = load i32, ptr %4, align 4
  ret i32 %35
}

; Function Attrs: inlinehint nounwind uwtable
define internal i32 @Kit_TruthWordNum(i32 noundef %0) #3 {
  %2 = alloca i32, align 4
  store i32 %0, ptr %2, align 4, !tbaa !8
  %3 = load i32, ptr %2, align 4, !tbaa !8
  %4 = icmp sle i32 %3, 5
  br i1 %4, label %5, label %6

5:                                                ; preds = %1
  br label %10

6:                                                ; preds = %1
  %7 = load i32, ptr %2, align 4, !tbaa !8
  %8 = sub nsw i32 %7, 5
  %9 = shl i32 1, %8
  br label %10

10:                                               ; preds = %6, %5
  %11 = phi i32 [ 1, %5 ], [ %9, %6 ]
  ret i32 %11
}

; Function Attrs: inlinehint nounwind uwtable
define internal i32 @Kit_TruthIsConst1(ptr noundef %0, i32 noundef %1) #3 {
  %3 = alloca i32, align 4
  %4 = alloca ptr, align 8
  %5 = alloca i32, align 4
  %6 = alloca i32, align 4
  %7 = alloca i32, align 4
  store ptr %0, ptr %4, align 8, !tbaa !17
  store i32 %1, ptr %5, align 4, !tbaa !8
  call void @llvm.lifetime.start.p0(i64 4, ptr %6) #8
  %8 = load i32, ptr %5, align 4, !tbaa !8
  %9 = call i32 @Kit_TruthWordNum(i32 noundef %8)
  %10 = sub nsw i32 %9, 1
  store i32 %10, ptr %6, align 4, !tbaa !8
  br label %11

11:                                               ; preds = %23, %2
  %12 = load i32, ptr %6, align 4, !tbaa !8
  %13 = icmp sge i32 %12, 0
  br i1 %13, label %14, label %26

14:                                               ; preds = %11
  %15 = load ptr, ptr %4, align 8, !tbaa !17
  %16 = load i32, ptr %6, align 4, !tbaa !8
  %17 = sext i32 %16 to i64
  %18 = getelementptr inbounds i32, ptr %15, i64 %17
  %19 = load i32, ptr %18, align 4, !tbaa !8
  %20 = icmp ne i32 %19, -1
  br i1 %20, label %21, label %22

21:                                               ; preds = %14
  store i32 0, ptr %3, align 4
  store i32 1, ptr %7, align 4
  br label %27

22:                                               ; preds = %14
  br label %23

23:                                               ; preds = %22
  %24 = load i32, ptr %6, align 4, !tbaa !8
  %25 = add nsw i32 %24, -1
  store i32 %25, ptr %6, align 4, !tbaa !8
  br label %11, !llvm.loop !21

26:                                               ; preds = %11
  store i32 1, ptr %3, align 4
  store i32 1, ptr %7, align 4
  br label %27

27:                                               ; preds = %26, %21
  call void @llvm.lifetime.end.p0(i64 4, ptr %6) #8
  %28 = load i32, ptr %3, align 4
  ret i32 %28
}

; Function Attrs: inlinehint nounwind uwtable
define internal i32 @Kit_TruthIsConst0(ptr noundef %0, i32 noundef %1) #3 {
  %3 = alloca i32, align 4
  %4 = alloca ptr, align 8
  %5 = alloca i32, align 4
  %6 = alloca i32, align 4
  %7 = alloca i32, align 4
  store ptr %0, ptr %4, align 8, !tbaa !17
  store i32 %1, ptr %5, align 4, !tbaa !8
  call void @llvm.lifetime.start.p0(i64 4, ptr %6) #8
  %8 = load i32, ptr %5, align 4, !tbaa !8
  %9 = call i32 @Kit_TruthWordNum(i32 noundef %8)
  %10 = sub nsw i32 %9, 1
  store i32 %10, ptr %6, align 4, !tbaa !8
  br label %11

11:                                               ; preds = %23, %2
  %12 = load i32, ptr %6, align 4, !tbaa !8
  %13 = icmp sge i32 %12, 0
  br i1 %13, label %14, label %26

14:                                               ; preds = %11
  %15 = load ptr, ptr %4, align 8, !tbaa !17
  %16 = load i32, ptr %6, align 4, !tbaa !8
  %17 = sext i32 %16 to i64
  %18 = getelementptr inbounds i32, ptr %15, i64 %17
  %19 = load i32, ptr %18, align 4, !tbaa !8
  %20 = icmp ne i32 %19, 0
  br i1 %20, label %21, label %22

21:                                               ; preds = %14
  store i32 0, ptr %3, align 4
  store i32 1, ptr %7, align 4
  br label %27

22:                                               ; preds = %14
  br label %23

23:                                               ; preds = %22
  %24 = load i32, ptr %6, align 4, !tbaa !8
  %25 = add nsw i32 %24, -1
  store i32 %25, ptr %6, align 4, !tbaa !8
  br label %11, !llvm.loop !19

26:                                               ; preds = %11
  store i32 1, ptr %3, align 4
  store i32 1, ptr %7, align 4
  br label %27

27:                                               ; preds = %26, %21
  call void @llvm.lifetime.end.p0(i64 4, ptr %6) #8
  %28 = load i32, ptr %3, align 4
  ret i32 %28
}

; Function Attrs: nounwind uwtable
define ptr @Kit_TruthToCloud_rec(ptr noundef %0, ptr noundef %1, i32 noundef %2, i32 noundef %3) #0 {
  %5 = alloca ptr, align 8
  %6 = alloca ptr, align 8
  %7 = alloca ptr, align 8
  %8 = alloca i32, align 4
  %9 = alloca i32, align 4
  %10 = alloca ptr, align 8
  %11 = alloca ptr, align 8
  %12 = alloca ptr, align 8
  %13 = alloca ptr, align 8
  %14 = alloca i32, align 4
  store ptr %0, ptr %6, align 8, !tbaa !3
  store ptr %1, ptr %7, align 8, !tbaa !17
  store i32 %2, ptr %8, align 4, !tbaa !8
  store i32 %3, ptr %9, align 4, !tbaa !8
  call void @llvm.lifetime.start.p0(i64 8, ptr %10) #8
  call void @llvm.lifetime.start.p0(i64 8, ptr %11) #8
  call void @llvm.lifetime.start.p0(i64 8, ptr %12) #8
  call void @llvm.lifetime.start.p0(i64 8, ptr %13) #8
  %15 = load i32, ptr %8, align 4, !tbaa !8
  %16 = icmp sle i32 %15, 5
  br i1 %16, label %17, label %25

17:                                               ; preds = %4
  %18 = load ptr, ptr %6, align 8, !tbaa !3
  %19 = load ptr, ptr %7, align 8, !tbaa !17
  %20 = getelementptr inbounds i32, ptr %19, i64 0
  %21 = load i32, ptr %20, align 4, !tbaa !8
  %22 = load i32, ptr %8, align 4, !tbaa !8
  %23 = load i32, ptr %9, align 4, !tbaa !8
  %24 = call ptr @Kit_TruthToCloud5_rec(ptr noundef %18, i32 noundef %21, i32 noundef %22, i32 noundef %23)
  store ptr %24, ptr %5, align 8
  store i32 1, ptr %14, align 4
  br label %103

25:                                               ; preds = %4
  %26 = load ptr, ptr %7, align 8, !tbaa !17
  %27 = load i32, ptr %8, align 4, !tbaa !8
  %28 = call i32 @Kit_TruthIsConst0(ptr noundef %26, i32 noundef %27)
  %29 = icmp ne i32 %28, 0
  br i1 %29, label %30, label %34

30:                                               ; preds = %25
  %31 = load ptr, ptr %6, align 8, !tbaa !3
  %32 = getelementptr inbounds nuw %struct.cloudManager, ptr %31, i32 0, i32 19
  %33 = load ptr, ptr %32, align 8, !tbaa !10
  store ptr %33, ptr %5, align 8
  store i32 1, ptr %14, align 4
  br label %103

34:                                               ; preds = %25
  %35 = load ptr, ptr %7, align 8, !tbaa !17
  %36 = load i32, ptr %8, align 4, !tbaa !8
  %37 = call i32 @Kit_TruthIsConst1(ptr noundef %35, i32 noundef %36)
  %38 = icmp ne i32 %37, 0
  br i1 %38, label %39, label %43

39:                                               ; preds = %34
  %40 = load ptr, ptr %6, align 8, !tbaa !3
  %41 = getelementptr inbounds nuw %struct.cloudManager, ptr %40, i32 0, i32 18
  %42 = load ptr, ptr %41, align 8, !tbaa !14
  store ptr %42, ptr %5, align 8
  store i32 1, ptr %14, align 4
  br label %103

43:                                               ; preds = %34
  %44 = load ptr, ptr %7, align 8, !tbaa !17
  store ptr %44, ptr %12, align 8, !tbaa !17
  %45 = load ptr, ptr %7, align 8, !tbaa !17
  %46 = load i32, ptr %8, align 4, !tbaa !8
  %47 = sub nsw i32 %46, 1
  %48 = call i32 @Kit_TruthWordNum(i32 noundef %47)
  %49 = sext i32 %48 to i64
  %50 = getelementptr inbounds i32, ptr %45, i64 %49
  store ptr %50, ptr %13, align 8, !tbaa !17
  %51 = load ptr, ptr %12, align 8, !tbaa !17
  %52 = load ptr, ptr %13, align 8, !tbaa !17
  %53 = load i32, ptr %8, align 4, !tbaa !8
  %54 = sub nsw i32 %53, 1
  %55 = call i32 @Kit_TruthIsEqual(ptr noundef %51, ptr noundef %52, i32 noundef %54)
  %56 = icmp ne i32 %55, 0
  br i1 %56, label %57, label %64

57:                                               ; preds = %43
  %58 = load ptr, ptr %6, align 8, !tbaa !3
  %59 = load ptr, ptr %12, align 8, !tbaa !17
  %60 = load i32, ptr %8, align 4, !tbaa !8
  %61 = sub nsw i32 %60, 1
  %62 = load i32, ptr %9, align 4, !tbaa !8
  %63 = call ptr @Kit_TruthToCloud_rec(ptr noundef %58, ptr noundef %59, i32 noundef %61, i32 noundef %62)
  store ptr %63, ptr %5, align 8
  store i32 1, ptr %14, align 4
  br label %103

64:                                               ; preds = %43
  %65 = load ptr, ptr %12, align 8, !tbaa !17
  %66 = load ptr, ptr %13, align 8, !tbaa !17
  %67 = load i32, ptr %8, align 4, !tbaa !8
  %68 = sub nsw i32 %67, 1
  %69 = call i32 @Kit_TruthIsOpposite(ptr noundef %65, ptr noundef %66, i32 noundef %68)
  %70 = icmp ne i32 %69, 0
  br i1 %70, label %71, label %82

71:                                               ; preds = %64
  %72 = load ptr, ptr %6, align 8, !tbaa !3
  %73 = load ptr, ptr %12, align 8, !tbaa !17
  %74 = load i32, ptr %8, align 4, !tbaa !8
  %75 = sub nsw i32 %74, 1
  %76 = load i32, ptr %9, align 4, !tbaa !8
  %77 = call ptr @Kit_TruthToCloud_rec(ptr noundef %72, ptr noundef %73, i32 noundef %75, i32 noundef %76)
  store ptr %77, ptr %10, align 8, !tbaa !16
  %78 = load ptr, ptr %10, align 8, !tbaa !16
  %79 = ptrtoint ptr %78 to i64
  %80 = xor i64 %79, 1
  %81 = inttoptr i64 %80 to ptr
  store ptr %81, ptr %11, align 8, !tbaa !16
  br label %95

82:                                               ; preds = %64
  %83 = load ptr, ptr %6, align 8, !tbaa !3
  %84 = load ptr, ptr %12, align 8, !tbaa !17
  %85 = load i32, ptr %8, align 4, !tbaa !8
  %86 = sub nsw i32 %85, 1
  %87 = load i32, ptr %9, align 4, !tbaa !8
  %88 = call ptr @Kit_TruthToCloud_rec(ptr noundef %83, ptr noundef %84, i32 noundef %86, i32 noundef %87)
  store ptr %88, ptr %10, align 8, !tbaa !16
  %89 = load ptr, ptr %6, align 8, !tbaa !3
  %90 = load ptr, ptr %13, align 8, !tbaa !17
  %91 = load i32, ptr %8, align 4, !tbaa !8
  %92 = sub nsw i32 %91, 1
  %93 = load i32, ptr %9, align 4, !tbaa !8
  %94 = call ptr @Kit_TruthToCloud_rec(ptr noundef %89, ptr noundef %90, i32 noundef %92, i32 noundef %93)
  store ptr %94, ptr %11, align 8, !tbaa !16
  br label %95

95:                                               ; preds = %82, %71
  %96 = load ptr, ptr %6, align 8, !tbaa !3
  %97 = load i32, ptr %9, align 4, !tbaa !8
  %98 = load i32, ptr %8, align 4, !tbaa !8
  %99 = sub nsw i32 %97, %98
  %100 = load ptr, ptr %11, align 8, !tbaa !16
  %101 = load ptr, ptr %10, align 8, !tbaa !16
  %102 = call ptr @Cloud_MakeNode(ptr noundef %96, i32 noundef %99, ptr noundef %100, ptr noundef %101)
  store ptr %102, ptr %5, align 8
  store i32 1, ptr %14, align 4
  br label %103

103:                                              ; preds = %95, %57, %39, %30, %17
  call void @llvm.lifetime.end.p0(i64 8, ptr %13) #8
  call void @llvm.lifetime.end.p0(i64 8, ptr %12) #8
  call void @llvm.lifetime.end.p0(i64 8, ptr %11) #8
  call void @llvm.lifetime.end.p0(i64 8, ptr %10) #8
  %104 = load ptr, ptr %5, align 8
  ret ptr %104
}