; Function Attrs: nounwind uwtable
define ptr @Kit_TruthToCloud_rec(ptr noundef %0, ptr noundef %1, i32 noundef %2, i32 noundef %3) local_unnamed_addr #0 {
  %5 = icmp slt i32 %2, 6
  br i1 %5, label %tailrecurse._crit_edge, label %.lr.ph

tailrecurse.loopexit:                             ; preds = %select.unfold.i
  %6 = icmp slt i32 %.tr6774, 7
  br i1 %6, label %tailrecurse._crit_edge, label %.lr.ph

tailrecurse._crit_edge:                           ; preds = %tailrecurse.loopexit, %4
  %.tr67.lcssa = phi i32 [ %2, %4 ], [ 5, %tailrecurse.loopexit ]
  %7 = load i32, ptr %1, align 4, !tbaa !14
  %8 = tail call ptr @Kit_TruthToCloud5_rec(ptr noundef %0, i32 noundef %7, i32 noundef %.tr67.lcssa, i32 noundef %3)
  br label %63

.lr.ph:                                           ; preds = %4, %tailrecurse.loopexit
  %.tr6774 = phi i32 [ %30, %tailrecurse.loopexit ], [ %2, %4 ]
  %9 = add nsw i32 %.tr6774, -5
  %10 = shl nuw i32 1, %9
  %11 = zext i32 %10 to i64
  br label %12

12:                                               ; preds = %15, %.lr.ph
  %indvars.iv.i = phi i64 [ %16, %15 ], [ %11, %.lr.ph ]
  %13 = trunc nuw i64 %indvars.iv.i to i32
  %14 = icmp sgt i32 %13, 0
  br i1 %14, label %15, label %Kit_TruthIsConst0.exit

15:                                               ; preds = %12
  %16 = add nsw i64 %indvars.iv.i, -1
  %17 = getelementptr inbounds nuw i32, ptr %1, i64 %16
  %18 = load i32, ptr %17, align 4, !tbaa !14
  %.not.i = icmp eq i32 %18, 0
  br i1 %.not.i, label %12, label %.preheader, !llvm.loop !15

Kit_TruthIsConst0.exit:                           ; preds = %12
  %19 = getelementptr inbounds nuw i8, ptr %0, i64 120
  %20 = load ptr, ptr %19, align 8, !tbaa !3
  br label %63

.preheader:                                       ; preds = %15, %23
  %indvars.iv.i48 = phi i64 [ %24, %23 ], [ %11, %15 ]
  %21 = trunc nuw i64 %indvars.iv.i48 to i32
  %22 = icmp sgt i32 %21, 0
  br i1 %22, label %23, label %Kit_TruthIsConst1.exit

23:                                               ; preds = %.preheader
  %24 = add nsw i64 %indvars.iv.i48, -1
  %25 = getelementptr inbounds nuw i32, ptr %1, i64 %24
  %26 = load i32, ptr %25, align 4, !tbaa !14
  %.not.i50 = icmp eq i32 %26, -1
  br i1 %.not.i50, label %.preheader, label %29, !llvm.loop !17

Kit_TruthIsConst1.exit:                           ; preds = %.preheader
  %27 = getelementptr inbounds nuw i8, ptr %0, i64 112
  %28 = load ptr, ptr %27, align 8, !tbaa !11
  br label %63

29:                                               ; preds = %23
  %30 = add nsw i32 %.tr6774, -1
  %31 = add nsw i32 %.tr6774, -6
  %32 = shl nuw i32 1, %31
  %33 = sext i32 %32 to i64
  %34 = getelementptr inbounds i32, ptr %1, i64 %33
  %35 = zext i32 %32 to i64
  br label %select.unfold.i

select.unfold.i:                                  ; preds = %38, %29
  %indvars.iv.i51 = phi i64 [ %35, %29 ], [ %39, %38 ]
  %36 = trunc nuw i64 %indvars.iv.i51 to i32
  %37 = icmp sgt i32 %36, 0
  br i1 %37, label %38, label %tailrecurse.loopexit

38:                                               ; preds = %select.unfold.i
  %39 = add nsw i64 %indvars.iv.i51, -1
  %40 = getelementptr inbounds nuw i32, ptr %1, i64 %39
  %41 = load i32, ptr %40, align 4, !tbaa !14
  %42 = getelementptr inbounds nuw i32, ptr %34, i64 %39
  %43 = load i32, ptr %42, align 4, !tbaa !14
  %.not.i52 = icmp eq i32 %41, %43
  br i1 %.not.i52, label %select.unfold.i, label %select.unfold.i54, !llvm.loop !18

select.unfold.i54:                                ; preds = %38, %46
  %indvars.iv.i55 = phi i64 [ %47, %46 ], [ %35, %38 ]
  %44 = trunc nuw i64 %indvars.iv.i55 to i32
  %45 = icmp sgt i32 %44, 0
  br i1 %45, label %46, label %Kit_TruthIsOpposite.exit

46:                                               ; preds = %select.unfold.i54
  %47 = add nsw i64 %indvars.iv.i55, -1
  %48 = getelementptr inbounds nuw i32, ptr %1, i64 %47
  %49 = load i32, ptr %48, align 4, !tbaa !14
  %50 = getelementptr inbounds nuw i32, ptr %34, i64 %47
  %51 = load i32, ptr %50, align 4, !tbaa !14
  %52 = xor i32 %51, %49
  %.not.i57 = icmp eq i32 %52, -1
  br i1 %.not.i57, label %select.unfold.i54, label %57, !llvm.loop !19

Kit_TruthIsOpposite.exit:                         ; preds = %select.unfold.i54
  %53 = tail call ptr @Kit_TruthToCloud_rec(ptr noundef %0, ptr noundef nonnull %1, i32 noundef %30, i32 noundef %3)
  %54 = ptrtoint ptr %53 to i64
  %55 = xor i64 %54, 1
  %56 = inttoptr i64 %55 to ptr
  br label %60

57:                                               ; preds = %46
  %58 = tail call ptr @Kit_TruthToCloud_rec(ptr noundef %0, ptr noundef nonnull %1, i32 noundef %30, i32 noundef %3)
  %59 = tail call ptr @Kit_TruthToCloud_rec(ptr noundef %0, ptr noundef nonnull %34, i32 noundef %30, i32 noundef %3)
  br label %60

60:                                               ; preds = %57, %Kit_TruthIsOpposite.exit
  %.043 = phi ptr [ %56, %Kit_TruthIsOpposite.exit ], [ %59, %57 ]
  %.042 = phi ptr [ %53, %Kit_TruthIsOpposite.exit ], [ %58, %57 ]
  %61 = sub nsw i32 %3, %.tr6774
  %62 = tail call ptr @Cloud_MakeNode(ptr noundef %0, i32 noundef %61, ptr noundef %.043, ptr noundef %.042) #8
  br label %63

63:                                               ; preds = %60, %Kit_TruthIsConst1.exit, %Kit_TruthIsConst0.exit, %tailrecurse._crit_edge
  %.0 = phi ptr [ %8, %tailrecurse._crit_edge ], [ %20, %Kit_TruthIsConst0.exit ], [ %28, %Kit_TruthIsConst1.exit ], [ %62, %60 ]
  ret ptr %.0
}